target datalayout = "e-m:e-p270:32:32-p271:32:32-p272:64:64-i64:64-i128:128-f80:128-n8:16:32:64-S128"
target triple = "x86_64-pc-linux-gnu"

%struct._priv_exr_context_t = type { i8, i8, i8, i8, i8, i8, i8, i8, %struct.exr_attr_string_t, %struct.exr_attr_string_t, ptr, ptr, ptr, ptr, ptr, ptr, ptr, ptr, i32, i32, i32, i32, i32, float, ptr, ptr, ptr, i64, ptr, ptr, i64, i32, i32, i32, i32, %struct._priv_exr_part_t, ptr, ptr, %struct.exr_attribute_list, %union.pthread_mutex_t, i8, i8, [2 x i8], i32 }
%struct.exr_attr_string_t = type { i32, i32, ptr }
%struct._priv_exr_part_t = type { i32, i32, %struct.exr_attribute_list, ptr, ptr, ptr, ptr, ptr, ptr, ptr, ptr, ptr, ptr, ptr, ptr, ptr, ptr, %struct.exr_attr_box2i_t, %struct.exr_attr_box2i_t, i32, i32, i32, float, i32, i32, ptr, ptr, ptr, ptr, i64, i16, i16, i32, i64, i64 }
%struct.exr_attr_box2i_t = type { %struct.exr_attr_v2i_t, %struct.exr_attr_v2i_t }
%struct.exr_attr_v2i_t = type { i32, i32 }
%struct.exr_attribute_list = type { i32, i32, ptr, ptr }
%union.pthread_mutex_t = type { %struct.__pthread_mutex_s }
%struct.__pthread_mutex_s = type { i32, i32, i32, i32, i32, i16, i16, %struct.__pthread_internal_list }
%struct.__pthread_internal_list = type { ptr, ptr }
%struct.exr_chunk_info_t = type { i32, i32, i32, i32, i32, i8, i8, i8, i8, i64, i64, i64, i64, i64 }

@.str = private unnamed_addr constant [29 x i8] c"Part index (%d) out of range\00", align 1
@.str.31 = private unnamed_addr constant [48 x i8] c"invalid chunk index (%d) vs part chunk count %d\00", align 1
@.str.32 = private unnamed_addr constant [45 x i8] c"mismatched storage type for chunk block info\00", align 1
@.str.33 = private unnamed_addr constant [49 x i8] c"mismatched compression type for chunk block info\00", align 1
@.str.34 = private unnamed_addr constant [58 x i8] c"chunk block info data offset (%lu) past end of file (%ld)\00", align 1

; Function Attrs: nounwind uwtable
define i32 @exr_read_chunk(ptr noundef %0, i32 noundef %1, ptr noundef %2, ptr noundef %3) #0 {
  %5 = alloca i32, align 4
  %6 = alloca ptr, align 8
  %7 = alloca i32, align 4
  %8 = alloca ptr, align 8
  %9 = alloca ptr, align 8
  %10 = alloca i32, align 4
  %11 = alloca i64, align 8
  %12 = alloca i64, align 8
  %13 = alloca i64, align 8
  %14 = alloca i32, align 4
  %15 = alloca ptr, align 8
  %16 = alloca i32, align 4
  store ptr %0, ptr %6, align 8, !tbaa !3
  store i32 %1, ptr %7, align 4, !tbaa !8
  store ptr %2, ptr %8, align 8, !tbaa !54
  store ptr %3, ptr %9, align 8, !tbaa !54
  call void @llvm.lifetime.start.p0(i64 4, ptr %10) #7
  call void @llvm.lifetime.start.p0(i64 8, ptr %11) #7
  call void @llvm.lifetime.start.p0(i64 8, ptr %12) #7
  call void @llvm.lifetime.start.p0(i64 8, ptr %13) #7
  call void @llvm.lifetime.start.p0(i64 4, ptr %14) #7
  store i32 0, ptr %14, align 4, !tbaa !8
  call void @llvm.lifetime.start.p0(i64 8, ptr %15) #7
  %17 = load ptr, ptr %6, align 8, !tbaa !3
  %18 = icmp ne ptr %17, null
  br i1 %18, label %20, label %19

19:                                               ; preds = %4
  store i32 2, ptr %5, align 4
  store i32 1, ptr %16, align 4
  br label %199

20:                                               ; preds = %4
  %21 = load ptr, ptr %6, align 8, !tbaa !3
  %22 = getelementptr inbounds nuw %struct._priv_exr_context_t, ptr %21, i32 0, i32 0
  %23 = load i8, ptr %22, align 8, !tbaa !12
  %24 = zext i8 %23 to i32
  %25 = icmp ne i32 %24, 0
  br i1 %25, label %26, label %32

26:                                               ; preds = %20
  %27 = load ptr, ptr %6, align 8, !tbaa !3
  %28 = getelementptr inbounds nuw %struct._priv_exr_context_t, ptr %27, i32 0, i32 12
  %29 = load ptr, ptr %28, align 8, !tbaa !31
  %30 = load ptr, ptr %6, align 8, !tbaa !3
  %31 = call i32 %29(ptr noundef %30, i32 noundef 7)
  store i32 %31, ptr %5, align 4
  store i32 1, ptr %16, align 4
  br label %199

32:                                               ; preds = %20
  %33 = load i32, ptr %7, align 4, !tbaa !8
  %34 = icmp slt i32 %33, 0
  br i1 %34, label %41, label %35

35:                                               ; preds = %32
  %36 = load i32, ptr %7, align 4, !tbaa !8
  %37 = load ptr, ptr %6, align 8, !tbaa !3
  %38 = getelementptr inbounds nuw %struct._priv_exr_context_t, ptr %37, i32 0, i32 34
  %39 = load i32, ptr %38, align 4, !tbaa !27
  %40 = icmp sge i32 %36, %39
  br i1 %40, label %41, label %48

41:                                               ; preds = %35, %32
  %42 = load ptr, ptr %6, align 8, !tbaa !3
  %43 = getelementptr inbounds nuw %struct._priv_exr_context_t, ptr %42, i32 0, i32 14
  %44 = load ptr, ptr %43, align 8, !tbaa !28
  %45 = load ptr, ptr %6, align 8, !tbaa !3
  %46 = load i32, ptr %7, align 4, !tbaa !8
  %47 = call i32 (ptr, i32, ptr, ...) %44(ptr noundef %45, i32 noundef 4, ptr noundef @.str, i32 noundef %46)
  store i32 %47, ptr %5, align 4
  store i32 1, ptr %16, align 4
  br label %199

48:                                               ; preds = %35
  %49 = load ptr, ptr %6, align 8, !tbaa !3
  %50 = getelementptr inbounds nuw %struct._priv_exr_context_t, ptr %49, i32 0, i32 37
  %51 = load ptr, ptr %50, align 8, !tbaa !29
  %52 = load i32, ptr %7, align 4, !tbaa !8
  %53 = sext i32 %52 to i64
  %54 = getelementptr inbounds ptr, ptr %51, i64 %53
  %55 = load ptr, ptr %54, align 8, !tbaa !30
  store ptr %55, ptr %15, align 8, !tbaa !30
  %56 = load ptr, ptr %8, align 8, !tbaa !54
  %57 = icmp ne ptr %56, null
  br i1 %57, label %64, label %58

58:                                               ; preds = %48
  %59 = load ptr, ptr %6, align 8, !tbaa !3
  %60 = getelementptr inbounds nuw %struct._priv_exr_context_t, ptr %59, i32 0, i32 12
  %61 = load ptr, ptr %60, align 8, !tbaa !31
  %62 = load ptr, ptr %6, align 8, !tbaa !3
  %63 = call i32 %61(ptr noundef %62, i32 noundef 3)
  store i32 %63, ptr %5, align 4
  store i32 1, ptr %16, align 4
  br label %199

64:                                               ; preds = %48
  %65 = load ptr, ptr %8, align 8, !tbaa !54
  %66 = getelementptr inbounds nuw %struct.exr_chunk_info_t, ptr %65, i32 0, i32 10
  %67 = load i64, ptr %66, align 8, !tbaa !107
  %68 = icmp ugt i64 %67, 0
  br i1 %68, label %69, label %78

69:                                               ; preds = %64
  %70 = load ptr, ptr %9, align 8, !tbaa !54
  %71 = icmp ne ptr %70, null
  br i1 %71, label %78, label %72

72:                                               ; preds = %69
  %73 = load ptr, ptr %6, align 8, !tbaa !3
  %74 = getelementptr inbounds nuw %struct._priv_exr_context_t, ptr %73, i32 0, i32 12
  %75 = load ptr, ptr %74, align 8, !tbaa !31
  %76 = load ptr, ptr %6, align 8, !tbaa !3
  %77 = call i32 %75(ptr noundef %76, i32 noundef 3)
  store i32 %77, ptr %5, align 4
  store i32 1, ptr %16, align 4
  br label %199

78:                                               ; preds = %69, %64
  %79 = load ptr, ptr %8, align 8, !tbaa !54
  %80 = getelementptr inbounds nuw %struct.exr_chunk_info_t, ptr %79, i32 0, i32 0
  %81 = load i32, ptr %80, align 8, !tbaa !61
  %82 = icmp slt i32 %81, 0
  br i1 %82, label %91, label %83

83:                                               ; preds = %78
  %84 = load ptr, ptr %8, align 8, !tbaa !54
  %85 = getelementptr inbounds nuw %struct.exr_chunk_info_t, ptr %84, i32 0, i32 0
  %86 = load i32, ptr %85, align 8, !tbaa !61
  %87 = load ptr, ptr %15, align 8, !tbaa !30
  %88 = getelementptr inbounds nuw %struct._priv_exr_part_t, ptr %87, i32 0, i32 32
  %89 = load i32, ptr %88, align 4, !tbaa !36
  %90 = icmp sge i32 %86, %89
  br i1 %90, label %91, label %103

91:                                               ; preds = %83, %78
  %92 = load ptr, ptr %6, align 8, !tbaa !3
  %93 = getelementptr inbounds nuw %struct._priv_exr_context_t, ptr %92, i32 0, i32 14
  %94 = load ptr, ptr %93, align 8, !tbaa !28
  %95 = load ptr, ptr %6, align 8, !tbaa !3
  %96 = load ptr, ptr %8, align 8, !tbaa !54
  %97 = getelementptr inbounds nuw %struct.exr_chunk_info_t, ptr %96, i32 0, i32 0
  %98 = load i32, ptr %97, align 8, !tbaa !61
  %99 = load ptr, ptr %15, align 8, !tbaa !30
  %100 = getelementptr inbounds nuw %struct._priv_exr_part_t, ptr %99, i32 0, i32 32
  %101 = load i32, ptr %100, align 4, !tbaa !36
  %102 = call i32 (ptr, i32, ptr, ...) %94(ptr noundef %95, i32 noundef 3, ptr noundef @.str.31, i32 noundef %98, i32 noundef %101)
  store i32 %102, ptr %5, align 4
  store i32 1, ptr %16, align 4
  br label %199

103:                                              ; preds = %83
  %104 = load ptr, ptr %8, align 8, !tbaa !54
  %105 = getelementptr inbounds nuw %struct.exr_chunk_info_t, ptr %104, i32 0, i32 7
  %106 = load i8, ptr %105, align 2, !tbaa !63
  %107 = zext i8 %106 to i32
  %108 = load ptr, ptr %15, align 8, !tbaa !30
  %109 = getelementptr inbounds nuw %struct._priv_exr_part_t, ptr %108, i32 0, i32 1
  %110 = load i32, ptr %109, align 4, !tbaa !58
  %111 = trunc i32 %110 to i8
  %112 = zext i8 %111 to i32
  %113 = icmp ne i32 %107, %112
  br i1 %113, label %114, label %120

114:                                              ; preds = %103
  %115 = load ptr, ptr %6, align 8, !tbaa !3
  %116 = getelementptr inbounds nuw %struct._priv_exr_context_t, ptr %115, i32 0, i32 13
  %117 = load ptr, ptr %116, align 8, !tbaa !37
  %118 = load ptr, ptr %6, align 8, !tbaa !3
  %119 = call i32 %117(ptr noundef %118, i32 noundef 3, ptr noundef @.str.32)
  store i32 %119, ptr %5, align 4
  store i32 1, ptr %16, align 4
  br label %199

120:                                              ; preds = %103
  %121 = load ptr, ptr %8, align 8, !tbaa !54
  %122 = getelementptr inbounds nuw %struct.exr_chunk_info_t, ptr %121, i32 0, i32 8
  %123 = load i8, ptr %122, align 1, !tbaa !65
  %124 = zext i8 %123 to i32
  %125 = load ptr, ptr %15, align 8, !tbaa !30
  %126 = getelementptr inbounds nuw %struct._priv_exr_part_t, ptr %125, i32 0, i32 19
  %127 = load i32, ptr %126, align 8, !tbaa !64
  %128 = trunc i32 %127 to i8
  %129 = zext i8 %128 to i32
  %130 = icmp ne i32 %124, %129
  br i1 %130, label %131, label %137

131:                                              ; preds = %120
  %132 = load ptr, ptr %6, align 8, !tbaa !3
  %133 = getelementptr inbounds nuw %struct._priv_exr_context_t, ptr %132, i32 0, i32 13
  %134 = load ptr, ptr %133, align 8, !tbaa !37
  %135 = load ptr, ptr %6, align 8, !tbaa !3
  %136 = call i32 %134(ptr noundef %135, i32 noundef 3, ptr noundef @.str.33)
  store i32 %136, ptr %5, align 4
  store i32 1, ptr %16, align 4
  br label %199

137:                                              ; preds = %120
  %138 = load ptr, ptr %8, align 8, !tbaa !54
  %139 = getelementptr inbounds nuw %struct.exr_chunk_info_t, ptr %138, i32 0, i32 9
  %140 = load i64, ptr %139, align 8, !tbaa !106
  store i64 %140, ptr %11, align 8, !tbaa !33
  %141 = load ptr, ptr %6, align 8, !tbaa !3
  %142 = getelementptr inbounds nuw %struct._priv_exr_context_t, ptr %141, i32 0, i32 27
  %143 = load i64, ptr %142, align 8, !tbaa !38
  %144 = icmp sgt i64 %143, 0
  br i1 %144, label %145, label %161

145:                                              ; preds = %137
  %146 = load i64, ptr %11, align 8, !tbaa !33
  %147 = load ptr, ptr %6, align 8, !tbaa !3
  %148 = getelementptr inbounds nuw %struct._priv_exr_context_t, ptr %147, i32 0, i32 27
  %149 = load i64, ptr %148, align 8, !tbaa !38
  %150 = icmp ugt i64 %146, %149
  br i1 %150, label %151, label %161

151:                                              ; preds = %145
  %152 = load ptr, ptr %6, align 8, !tbaa !3
  %153 = getelementptr inbounds nuw %struct._priv_exr_context_t, ptr %152, i32 0, i32 14
  %154 = load ptr, ptr %153, align 8, !tbaa !28
  %155 = load ptr, ptr %6, align 8, !tbaa !3
  %156 = load i64, ptr %11, align 8, !tbaa !33
  %157 = load ptr, ptr %6, align 8, !tbaa !3
  %158 = getelementptr inbounds nuw %struct._priv_exr_context_t, ptr %157, i32 0, i32 27
  %159 = load i64, ptr %158, align 8, !tbaa !38
  %160 = call i32 (ptr, i32, ptr, ...) %154(ptr noundef %155, i32 noundef 3, ptr noundef @.str.34, i64 noundef %156, i64 noundef %159)
  store i32 %160, ptr %5, align 4
  store i32 1, ptr %16, align 4
  br label %199

161:                                              ; preds = %145, %137
  %162 = load ptr, ptr %15, align 8, !tbaa !30
  %163 = getelementptr inbounds nuw %struct._priv_exr_part_t, ptr %162, i32 0, i32 19
  %164 = load i32, ptr %163, align 8, !tbaa !64
  %165 = icmp eq i32 %164, 0
  br i1 %165, label %166, label %167

166:                                              ; preds = %161
  store i32 1, ptr %14, align 4, !tbaa !8
  br label %167

167:                                              ; preds = %166, %161
  %168 = load ptr, ptr %8, align 8, !tbaa !54
  %169 = getelementptr inbounds nuw %struct.exr_chunk_info_t, ptr %168, i32 0, i32 10
  %170 = load i64, ptr %169, align 8, !tbaa !107
  store i64 %170, ptr %12, align 8, !tbaa !33
  %171 = load i64, ptr %12, align 8, !tbaa !33
  %172 = icmp ugt i64 %171, 0
  br i1 %172, label %173, label %196

173:                                              ; preds = %167
  store i64 0, ptr %13, align 8, !tbaa !33
  %174 = load ptr, ptr %6, align 8, !tbaa !3
  %175 = getelementptr inbounds nuw %struct._priv_exr_context_t, ptr %174, i32 0, i32 10
  %176 = load ptr, ptr %175, align 8, !tbaa !40
  %177 = load ptr, ptr %6, align 8, !tbaa !3
  %178 = load ptr, ptr %9, align 8, !tbaa !54
  %179 = load i64, ptr %12, align 8, !tbaa !33
  %180 = load i32, ptr %14, align 4, !tbaa !8
  %181 = call i32 %176(ptr noundef %177, ptr noundef %178, i64 noundef %179, ptr noundef %11, ptr noundef %13, i32 noundef %180)
  store i32 %181, ptr %10, align 4, !tbaa !8
  %182 = load i32, ptr %14, align 4, !tbaa !8
  %183 = icmp eq i32 %182, 1
  br i1 %183, label %184, label %195

184:                                              ; preds = %173
  %185 = load i64, ptr %13, align 8, !tbaa !33
  %186 = load i64, ptr %12, align 8, !tbaa !33
  %187 = icmp slt i64 %185, %186
  br i1 %187, label %188, label %195

188:                                              ; preds = %184
  %189 = load ptr, ptr %9, align 8, !tbaa !54
  %190 = load i64, ptr %13, align 8, !tbaa !33
  %191 = getelementptr inbounds i8, ptr %189, i64 %190
  %192 = load i64, ptr %12, align 8, !tbaa !33
  %193 = load i64, ptr %13, align 8, !tbaa !33
  %194 = sub i64 %192, %193
  call void @llvm.memset.p0.i64(ptr align 1 %191, i8 0, i64 %194, i1 false)
  br label %195

195:                                              ; preds = %188, %184, %173
  br label %197

196:                                              ; preds = %167
  store i32 0, ptr %10, align 4, !tbaa !8
  br label %197

197:                                              ; preds = %196, %195
  %198 = load i32, ptr %10, align 4, !tbaa !8
  store i32 %198, ptr %5, align 4
  store i32 1, ptr %16, align 4
  br label %199

199:                                              ; preds = %197, %151, %131, %114, %91, %72, %58, %41, %26, %19
  call void @llvm.lifetime.end.p0(i64 8, ptr %15) #7
  call void @llvm.lifetime.end.p0(i64 4, ptr %14) #7
  call void @llvm.lifetime.end.p0(i64 8, ptr %13) #7
  call void @llvm.lifetime.end.p0(i64 8, ptr %12) #7
  call void @llvm.lifetime.end.p0(i64 8, ptr %11) #7
  call void @llvm.lifetime.end.p0(i64 4, ptr %10) #7
  %200 = load i32, ptr %5, align 4
  ret i32 %200
}