; Function Attrs: nounwind uwtable
define i32 @exr_read_chunk(ptr noundef %0, i32 noundef %1, ptr noundef readonly %2, ptr noundef %3) local_unnamed_addr #0 {
  %5 = alloca i64, align 8
  %6 = alloca i64, align 8
  call void @llvm.lifetime.start.p0(i64 8, ptr nonnull %5) #8
  call void @llvm.lifetime.start.p0(i64 8, ptr nonnull %6) #8
  %.not = icmp eq ptr %0, null
  br i1 %.not, label %90, label %7

7:                                                ; preds = %4
  %8 = load i8, ptr %0, align 8, !tbaa !3
  %.not64 = icmp eq i8 %8, 0
  br i1 %.not64, label %13, label %9

9:                                                ; preds = %7
  %10 = getelementptr inbounds nuw i8, ptr %0, i64 56
  %11 = load ptr, ptr %10, align 8, !tbaa !24
  %12 = tail call i32 %11(ptr noundef nonnull %0, i32 noundef 7) #8
  br label %90

13:                                               ; preds = %7
  %14 = icmp slt i32 %1, 0
  br i1 %14, label %18, label %15

15:                                               ; preds = %13
  %16 = getelementptr inbounds nuw i8, ptr %0, i64 196
  %17 = load i32, ptr %16, align 4, !tbaa !22
  %.not65 = icmp slt i32 %1, %17
  br i1 %.not65, label %22, label %18

18:                                               ; preds = %15, %13
  %19 = getelementptr inbounds nuw i8, ptr %0, i64 72
  %20 = load ptr, ptr %19, align 8, !tbaa !23
  %21 = tail call i32 (ptr, i32, ptr, ...) %20(ptr noundef nonnull %0, i32 noundef 4, ptr noundef nonnull @.str, i32 noundef %1) #8
  br label %90

22:                                               ; preds = %15
  %23 = getelementptr inbounds nuw i8, ptr %0, i64 472
  %24 = load ptr, ptr %23, align 8, !tbaa !25
  %25 = zext nneg i32 %1 to i64
  %26 = getelementptr inbounds nuw ptr, ptr %24, i64 %25
  %27 = load ptr, ptr %26, align 8, !tbaa !26
  %.not66 = icmp eq ptr %2, null
  br i1 %.not66, label %28, label %32

28:                                               ; preds = %22
  %29 = getelementptr inbounds nuw i8, ptr %0, i64 56
  %30 = load ptr, ptr %29, align 8, !tbaa !24
  %31 = tail call i32 %30(ptr noundef nonnull %0, i32 noundef 3) #8
  br label %90

32:                                               ; preds = %22
  %33 = getelementptr inbounds nuw i8, ptr %2, i64 32
  %34 = load i64, ptr %33, align 8, !tbaa !95
  %35 = icmp eq i64 %34, 0
  %36 = icmp ne ptr %3, null
  %or.cond = or i1 %36, %35
  br i1 %or.cond, label %41, label %37

37:                                               ; preds = %32
  %38 = getelementptr inbounds nuw i8, ptr %0, i64 56
  %39 = load ptr, ptr %38, align 8, !tbaa !24
  %40 = tail call i32 %39(ptr noundef nonnull %0, i32 noundef 3) #8
  br label %90

41:                                               ; preds = %32
  %42 = load i32, ptr %2, align 8, !tbaa !52
  %43 = icmp sgt i32 %42, -1
  %.phi.trans.insert = getelementptr inbounds nuw i8, ptr %27, i64 244
  %.pre = load i32, ptr %.phi.trans.insert, align 4, !tbaa !29
  %.not67 = icmp slt i32 %42, %.pre
  %or.cond72 = select i1 %43, i1 %.not67, i1 false
  br i1 %or.cond72, label %47, label %._crit_edge

._crit_edge:                                      ; preds = %41
  %44 = getelementptr inbounds nuw i8, ptr %0, i64 72
  %45 = load ptr, ptr %44, align 8, !tbaa !23
  %46 = tail call i32 (ptr, i32, ptr, ...) %45(ptr noundef nonnull %0, i32 noundef 3, ptr noundef nonnull @.str.31, i32 noundef %42, i32 noundef %.pre) #8
  br label %90

47:                                               ; preds = %41
  %48 = getelementptr inbounds nuw i8, ptr %2, i64 22
  %49 = load i8, ptr %48, align 2, !tbaa !54
  %50 = getelementptr inbounds nuw i8, ptr %27, i64 4
  %51 = load i32, ptr %50, align 4, !tbaa !44
  %52 = trunc i32 %51 to i8
  %.not68 = icmp eq i8 %49, %52
  br i1 %.not68, label %57, label %53

53:                                               ; preds = %47
  %54 = getelementptr inbounds nuw i8, ptr %0, i64 64
  %55 = load ptr, ptr %54, align 8, !tbaa !30
  %56 = tail call i32 %55(ptr noundef nonnull %0, i32 noundef 3, ptr noundef nonnull @.str.32) #8
  br label %90

57:                                               ; preds = %47
  %58 = getelementptr inbounds nuw i8, ptr %2, i64 23
  %59 = load i8, ptr %58, align 1, !tbaa !56
  %60 = getelementptr inbounds nuw i8, ptr %27, i64 176
  %61 = load i32, ptr %60, align 8, !tbaa !55
  %62 = trunc i32 %61 to i8
  %.not69 = icmp eq i8 %59, %62
  br i1 %.not69, label %67, label %63

63:                                               ; preds = %57
  %64 = getelementptr inbounds nuw i8, ptr %0, i64 64
  %65 = load ptr, ptr %64, align 8, !tbaa !30
  %66 = tail call i32 %65(ptr noundef nonnull %0, i32 noundef 3, ptr noundef nonnull @.str.33) #8
  br label %90

67:                                               ; preds = %57
  %68 = getelementptr inbounds nuw i8, ptr %2, i64 24
  %69 = load i64, ptr %68, align 8, !tbaa !94
  store i64 %69, ptr %5, align 8, !tbaa !28
  %70 = getelementptr inbounds nuw i8, ptr %0, i64 152
  %71 = load i64, ptr %70, align 8, !tbaa !31
  %72 = icmp sgt i64 %71, 0
  %73 = icmp ugt i64 %69, %71
  %or.cond71 = select i1 %72, i1 %73, i1 false
  br i1 %or.cond71, label %74, label %78

74:                                               ; preds = %67
  %75 = getelementptr inbounds nuw i8, ptr %0, i64 72
  %76 = load ptr, ptr %75, align 8, !tbaa !23
  %77 = tail call i32 (ptr, i32, ptr, ...) %76(ptr noundef nonnull %0, i32 noundef 3, ptr noundef nonnull @.str.34, i64 noundef %69, i64 noundef %71) #8
  br label %90

78:                                               ; preds = %67
  br i1 %35, label %90, label %79

79:                                               ; preds = %78
  %80 = icmp eq i32 %61, 0
  %spec.select = zext i1 %80 to i32
  store i64 0, ptr %6, align 8, !tbaa !28
  %81 = getelementptr inbounds nuw i8, ptr %0, i64 40
  %82 = load ptr, ptr %81, align 8, !tbaa !33
  %83 = call i32 %82(ptr noundef nonnull %0, ptr noundef %3, i64 noundef %34, ptr noundef nonnull %5, ptr noundef nonnull %6, i32 noundef %spec.select) #8
  br i1 %80, label %84, label %90

84:                                               ; preds = %79
  %85 = load i64, ptr %6, align 8, !tbaa !28
  %86 = icmp slt i64 %85, %34
  br i1 %86, label %87, label %90

87:                                               ; preds = %84
  %88 = getelementptr inbounds i8, ptr %3, i64 %85
  %89 = sub i64 %34, %85
  call void @llvm.memset.p0.i64(ptr align 1 %88, i8 0, i64 %89, i1 false)
  br label %90

90:                                               ; preds = %87, %84, %79, %78, %4, %74, %63, %53, %._crit_edge, %37, %28, %18, %9
  %.0 = phi i32 [ %12, %9 ], [ %21, %18 ], [ %46, %._crit_edge ], [ %56, %53 ], [ %66, %63 ], [ %77, %74 ], [ %40, %37 ], [ %31, %28 ], [ 2, %4 ], [ %83, %87 ], [ %83, %84 ], [ %83, %79 ], [ 0, %78 ]
  call void @llvm.lifetime.end.p0(i64 8, ptr nonnull %6) #8
  call void @llvm.lifetime.end.p0(i64 8, ptr nonnull %5) #8
  ret i32 %.0
}